target datalayout = "e-m:e-p270:32:32-p271:32:32-p272:64:64-i64:64-i128:128-f80:128-n8:16:32:64-S128"
target triple = "x86_64-pc-linux-gnu"

%struct.write_midx_context = type { ptr, i64, i64, ptr, ptr, ptr, i32, ptr, i64, ptr, ptr, i8, i32, i32, i32, i32, ptr, ptr }
%struct.pack_info = type { i32, ptr, ptr, i32, i32, i8 }

@.str.16 = private unnamed_addr constant [13 x i8] c"midx-write.c\00", align 1
@.str.55 = private unnamed_addr constant [65 x i8] c"pack '%s' has no bitmap position, but has %d bitmapped object(s)\00", align 1

; Function Attrs: inlinehint nounwind uwtable
define internal i32 @default_swab32(i32 noundef %0) #4 {
  %2 = alloca i32, align 4
  store i32 %0, ptr %2, align 4, !tbaa !11
  %3 = load i32, ptr %2, align 4, !tbaa !11
  %4 = and i32 %3, -16777216
  %5 = lshr i32 %4, 24
  %6 = load i32, ptr %2, align 4, !tbaa !11
  %7 = and i32 %6, 16711680
  %8 = lshr i32 %7, 8
  %9 = or i32 %5, %8
  %10 = load i32, ptr %2, align 4, !tbaa !11
  %11 = and i32 %10, 65280
  %12 = shl i32 %11, 8
  %13 = or i32 %9, %12
  %14 = load i32, ptr %2, align 4, !tbaa !11
  %15 = and i32 %14, 255
  %16 = shl i32 %15, 24
  %17 = or i32 %13, %16
  ret i32 %17
}

; Function Attrs: inlinehint nounwind uwtable
define internal i32 @git_bswap32(i32 noundef %0) #4 {
  %2 = alloca i32, align 4
  %3 = alloca i32, align 4
  store i32 %0, ptr %2, align 4, !tbaa !11
  call void @llvm.lifetime.start.p0(i64 4, ptr %3) #11
  %4 = load i32, ptr %2, align 4, !tbaa !11
  %5 = call i1 @llvm.is.constant.i32(i32 %4)
  br i1 %5, label %6, label %9

6:                                                ; preds = %1
  %7 = load i32, ptr %2, align 4, !tbaa !11
  %8 = call i32 @default_swab32(i32 noundef %7)
  store i32 %8, ptr %3, align 4, !tbaa !11
  br label %12

9:                                                ; preds = %1
  %10 = load i32, ptr %2, align 4, !tbaa !11
  %11 = call i32 asm "bswap $0", "=r,0,~{dirflag},~{fpsr},~{flags}"(i32 %10) #15, !srcloc !206
  store i32 %11, ptr %3, align 4, !tbaa !11
  br label %12

12:                                               ; preds = %9, %6
  %13 = load i32, ptr %3, align 4, !tbaa !11
  call void @llvm.lifetime.end.p0(i64 4, ptr %3) #11
  ret i32 %13
}

; Function Attrs: inlinehint nounwind uwtable
define internal void @hashwrite_be32(ptr noundef %0, i32 noundef %1) #4 {
  %3 = alloca ptr, align 8
  %4 = alloca i32, align 4
  store ptr %0, ptr %3, align 8, !tbaa !15
  store i32 %1, ptr %4, align 4, !tbaa !11
  %5 = load i32, ptr %4, align 4, !tbaa !11
  %6 = call i32 @git_bswap32(i32 noundef %5)
  store i32 %6, ptr %4, align 4, !tbaa !11
  %7 = load ptr, ptr %3, align 8, !tbaa !15
  call void @hashwrite(ptr noundef %7, ptr noundef %4, i32 noundef 4)
  ret void
}

; Function Attrs: nounwind uwtable
define internal i32 @write_midx_bitmapped_packs(ptr noundef %0, ptr noundef %1) #0 {
  %3 = alloca ptr, align 8
  %4 = alloca ptr, align 8
  %5 = alloca ptr, align 8
  %6 = alloca i64, align 8
  %7 = alloca ptr, align 8
  %8 = alloca i32, align 4
  store ptr %0, ptr %3, align 8, !tbaa !15
  store ptr %1, ptr %4, align 8, !tbaa !137
  call void @llvm.lifetime.start.p0(i64 8, ptr %5) #11
  %9 = load ptr, ptr %4, align 8, !tbaa !137
  store ptr %9, ptr %5, align 8, !tbaa !133
  call void @llvm.lifetime.start.p0(i64 8, ptr %6) #11
  store i64 0, ptr %6, align 8, !tbaa !72
  br label %10

10:                                               ; preds = %58, %2
  %11 = load i64, ptr %6, align 8, !tbaa !72
  %12 = load ptr, ptr %5, align 8, !tbaa !133
  %13 = getelementptr inbounds nuw %struct.write_midx_context, ptr %12, i32 0, i32 1
  %14 = load i64, ptr %13, align 8, !tbaa !51
  %15 = icmp ult i64 %11, %14
  br i1 %15, label %16, label %61

16:                                               ; preds = %10
  call void @llvm.lifetime.start.p0(i64 8, ptr %7) #11
  %17 = load ptr, ptr %5, align 8, !tbaa !133
  %18 = getelementptr inbounds nuw %struct.write_midx_context, ptr %17, i32 0, i32 0
  %19 = load ptr, ptr %18, align 8, !tbaa !53
  %20 = load i64, ptr %6, align 8, !tbaa !72
  %21 = getelementptr inbounds nuw %struct.pack_info, ptr %19, i64 %20
  store ptr %21, ptr %7, align 8, !tbaa !89
  %22 = load ptr, ptr %7, align 8, !tbaa !89
  %23 = getelementptr inbounds nuw %struct.pack_info, ptr %22, i32 0, i32 5
  %24 = load i8, ptr %23, align 8
  %25 = and i8 %24, 1
  %26 = zext i8 %25 to i32
  %27 = icmp ne i32 %26, 0
  br i1 %27, label %28, label %29

28:                                               ; preds = %16
  store i32 4, ptr %8, align 4
  br label %55

29:                                               ; preds = %16
  %30 = load ptr, ptr %7, align 8, !tbaa !89
  %31 = getelementptr inbounds nuw %struct.pack_info, ptr %30, i32 0, i32 3
  %32 = load i32, ptr %31, align 8, !tbaa !166
  %33 = icmp eq i32 %32, -1
  br i1 %33, label %34, label %46

34:                                               ; preds = %29
  %35 = load ptr, ptr %7, align 8, !tbaa !89
  %36 = getelementptr inbounds nuw %struct.pack_info, ptr %35, i32 0, i32 4
  %37 = load i32, ptr %36, align 4, !tbaa !167
  %38 = icmp ne i32 %37, 0
  br i1 %38, label %39, label %46

39:                                               ; preds = %34
  %40 = load ptr, ptr %7, align 8, !tbaa !89
  %41 = getelementptr inbounds nuw %struct.pack_info, ptr %40, i32 0, i32 1
  %42 = load ptr, ptr %41, align 8, !tbaa !63
  %43 = load ptr, ptr %7, align 8, !tbaa !89
  %44 = getelementptr inbounds nuw %struct.pack_info, ptr %43, i32 0, i32 4
  %45 = load i32, ptr %44, align 4, !tbaa !167
  call void (ptr, i32, ptr, ...) @BUG_fl(ptr noundef @.str.16, i32 noundef 444, ptr noundef @.str.55, ptr noundef %42, i32 noundef %45) #12
  unreachable

46:                                               ; preds = %34, %29
  %47 = load ptr, ptr %3, align 8, !tbaa !15
  %48 = load ptr, ptr %7, align 8, !tbaa !89
  %49 = getelementptr inbounds nuw %struct.pack_info, ptr %48, i32 0, i32 3
  %50 = load i32, ptr %49, align 8, !tbaa !166
  call void @hashwrite_be32(ptr noundef %47, i32 noundef %50)
  %51 = load ptr, ptr %3, align 8, !tbaa !15
  %52 = load ptr, ptr %7, align 8, !tbaa !89
  %53 = getelementptr inbounds nuw %struct.pack_info, ptr %52, i32 0, i32 4
  %54 = load i32, ptr %53, align 4, !tbaa !167
  call void @hashwrite_be32(ptr noundef %51, i32 noundef %54)
  store i32 0, ptr %8, align 4
  br label %55

55:                                               ; preds = %46, %28
  call void @llvm.lifetime.end.p0(i64 8, ptr %7) #11
  %56 = load i32, ptr %8, align 4
  switch i32 %56, label %62 [
    i32 0, label %57
    i32 4, label %58
  ]

57:                                               ; preds = %55
  br label %58

58:                                               ; preds = %57, %55
  %59 = load i64, ptr %6, align 8, !tbaa !72
  %60 = add i64 %59, 1
  store i64 %60, ptr %6, align 8, !tbaa !72
  br label %10, !llvm.loop !171

61:                                               ; preds = %10
  store i32 1, ptr %8, align 4
  call void @llvm.lifetime.end.p0(i64 8, ptr %6) #11
  call void @llvm.lifetime.end.p0(i64 8, ptr %5) #11
  ret i32 0

62:                                               ; preds = %55
  unreachable
}