; Function Attrs: nounwind uwtable
define internal noundef i32 @write_midx_bitmapped_packs(ptr noundef %0, ptr noundef readonly captures(none) %1) #0 {
  %3 = alloca i32, align 4
  %4 = alloca i32, align 4
  %5 = getelementptr inbounds nuw i8, ptr %1, i64 8
  %6 = load i64, ptr %5, align 8, !tbaa !43
  %.not20 = icmp eq i64 %6, 0
  br i1 %.not20, label %._crit_edge, label %.lr.ph

.lr.ph:                                           ; preds = %2, %27
  %7 = phi i64 [ %28, %27 ], [ %6, %2 ]
  %.019 = phi i64 [ %29, %27 ], [ 0, %2 ]
  %8 = load ptr, ptr %1, align 8, !tbaa !45
  %9 = getelementptr inbounds nuw %struct.pack_info, ptr %8, i64 %.019
  %10 = getelementptr inbounds nuw i8, ptr %9, i64 32
  %11 = load i8, ptr %10, align 8
  %12 = and i8 %11, 1
  %.not = icmp eq i8 %12, 0
  br i1 %.not, label %13, label %27

13:                                               ; preds = %.lr.ph
  %14 = getelementptr inbounds nuw i8, ptr %9, i64 24
  %15 = load i32, ptr %14, align 8, !tbaa !62
  %16 = icmp eq i32 %15, -1
  br i1 %16, label %17, label %hashwrite_be32.exit

17:                                               ; preds = %13
  %18 = getelementptr inbounds nuw i8, ptr %9, i64 28
  %19 = load i32, ptr %18, align 4, !tbaa !112
  %.not15 = icmp eq i32 %19, 0
  br i1 %.not15, label %hashwrite_be32.exit, label %20

20:                                               ; preds = %17
  %21 = getelementptr inbounds nuw i8, ptr %9, i64 8
  %22 = load ptr, ptr %21, align 8, !tbaa !60
  call void (ptr, i32, ptr, ...) @BUG_fl(ptr noundef nonnull @.str.16, i32 noundef 444, ptr noundef nonnull @.str.55, ptr noundef %22, i32 noundef %19) #20
  unreachable

hashwrite_be32.exit:                              ; preds = %17, %13
  call void @llvm.lifetime.start.p0(i64 4, ptr nonnull %4)
  %23 = call i32 asm "bswap $0", "=r,0,~{dirflag},~{fpsr},~{flags}"(i32 %15) #22, !srcloc !117
  store i32 %23, ptr %4, align 4, !tbaa !40
  call void @hashwrite(ptr noundef %0, ptr noundef nonnull %4, i32 noundef 4) #19
  call void @llvm.lifetime.end.p0(i64 4, ptr nonnull %4)
  %24 = getelementptr inbounds nuw i8, ptr %9, i64 28
  %25 = load i32, ptr %24, align 4, !tbaa !112
  call void @llvm.lifetime.start.p0(i64 4, ptr nonnull %3)
  %26 = call i32 asm "bswap $0", "=r,0,~{dirflag},~{fpsr},~{flags}"(i32 %25) #22, !srcloc !117
  store i32 %26, ptr %3, align 4, !tbaa !40
  call void @hashwrite(ptr noundef %0, ptr noundef nonnull %3, i32 noundef 4) #19
  call void @llvm.lifetime.end.p0(i64 4, ptr nonnull %3)
  %.pre = load i64, ptr %5, align 8, !tbaa !43
  br label %27

27:                                               ; preds = %.lr.ph, %hashwrite_be32.exit
  %28 = phi i64 [ %7, %.lr.ph ], [ %.pre, %hashwrite_be32.exit ]
  %29 = add nuw i64 %.019, 1
  %30 = icmp ult i64 %29, %28
  br i1 %30, label %.lr.ph, label %._crit_edge, !llvm.loop !215

._crit_edge:                                      ; preds = %27, %2
  ret i32 0
}